; Function Attrs: mustprogress uwtable
define noundef nonnull align 8 dereferenceable(16) ptr @_ZN6icu_7718CalendarAstronomer20eclipticToEquatorialERNS0_10EquatorialEdd(ptr noundef nonnull align 8 captures(none) dereferenceable(57) %0, ptr noundef nonnull returned writeonly align 8 dereferenceable(16) initializes((0, 16)) %1, double noundef %2, double noundef %3) local_unnamed_addr #0 align 2 {
  %5 = getelementptr inbounds nuw i8, ptr %0, i64 8
  %6 = load double, ptr %5, align 8, !tbaa !9
  %7 = tail call noundef signext i8 @uprv_isNaN_77(double noundef %6)
  %.not.i.i = icmp eq i8 %7, 0
  br i1 %.not.i.i, label %._crit_edge.i.i, label %8

._crit_edge.i.i:                                  ; preds = %4
  %.pre.i.i = load double, ptr %5, align 8, !tbaa !9
  br label %_ZN6icu_7718CalendarAstronomer17eclipticObliquityEv.exit

8:                                                ; preds = %4
  %9 = load double, ptr %0, align 8, !tbaa !3
  %10 = fadd double %9, 0x42E7F907CA644000
  %11 = fdiv double %10, 8.640000e+07
  store double %11, ptr %5, align 8, !tbaa !9
  br label %_ZN6icu_7718CalendarAstronomer17eclipticObliquityEv.exit

_ZN6icu_7718CalendarAstronomer17eclipticObliquityEv.exit: ; preds = %._crit_edge.i.i, %8
  %12 = phi double [ %.pre.i.i, %._crit_edge.i.i ], [ %11, %8 ]
  %13 = fadd double %12, 0xC142B42C80000000
  %14 = fdiv double %13, 3.652500e+04
  %15 = tail call double @llvm.fmuladd.f64(double %14, double 0xBF8AA1EDB45C4BE9, double 0x4037707570C564F9)
  %16 = fmul double %14, 0xBE865E9F80F29211
  %17 = tail call double @llvm.fmuladd.f64(double %16, double %14, double %15)
  %18 = fmul double %14, 0x3EA0DED40694CE29
  %19 = fmul double %14, %18
  %20 = tail call double @llvm.fmuladd.f64(double %19, double %14, double %17)
  %21 = fmul double %20, 0x3F91DF46A2529D39
  %22 = tail call double @sin(double noundef %21) #16, !tbaa !14
  %23 = tail call double @cos(double noundef %21) #16, !tbaa !14
  %24 = tail call double @sin(double noundef %2) #16, !tbaa !14
  %25 = tail call double @cos(double noundef %2) #16, !tbaa !14
  %26 = tail call double @sin(double noundef %3) #16, !tbaa !14
  %27 = tail call double @cos(double noundef %3) #16, !tbaa !14
  %28 = tail call double @tan(double noundef %3) #16, !tbaa !14
  %29 = fneg double %22
  %30 = fmul double %28, %29
  %31 = tail call double @llvm.fmuladd.f64(double %24, double %23, double %30)
  %32 = tail call double @atan2(double noundef %31, double noundef %25) #16, !tbaa !14
  %33 = fmul double %22, %27
  %34 = fmul double %24, %33
  %35 = tail call double @llvm.fmuladd.f64(double %26, double %23, double %34)
  %36 = tail call double @asin(double noundef %35) #16, !tbaa !14
  store double %32, ptr %1, align 8, !tbaa !16
  %37 = getelementptr inbounds nuw i8, ptr %1, i64 8
  store double %36, ptr %37, align 8, !tbaa !17
  ret ptr %1
}